; Function Attrs: mustprogress uwtable
define void @grpc_slice_buffer_take_first(ptr dead_on_unwind noalias writable sret(%struct.grpc_slice) align 8 captures(none) %0, ptr noundef captures(none) %1) local_unnamed_addr #3 personality ptr @__gxx_personality_v0 {
  %3 = alloca %"class.absl::lts_20240722::log_internal::LogMessageFatal", align 8
  %4 = getelementptr inbounds nuw i8, ptr %1, i64 16
  %5 = load i64, ptr %4, align 8, !tbaa !13
  %.not = icmp eq i64 %5, 0
  br i1 %.not, label %19, label %6, !prof !27

6:                                                ; preds = %2
  %7 = getelementptr inbounds nuw i8, ptr %1, i64 8
  %8 = load ptr, ptr %7, align 8, !tbaa !17
  tail call void @llvm.memcpy.p0.p0.i64(ptr noundef nonnull align 8 dereferenceable(32) %0, ptr noundef nonnull align 8 dereferenceable(32) %8, i64 32, i1 false), !tbaa.struct !3
  %9 = getelementptr inbounds nuw i8, ptr %8, i64 32
  store ptr %9, ptr %7, align 8, !tbaa !17
  %10 = add i64 %5, -1
  store i64 %10, ptr %4, align 8, !tbaa !13
  %11 = load ptr, ptr %0, align 8, !tbaa !18
  %.not7 = icmp eq ptr %11, null
  %12 = getelementptr inbounds nuw i8, ptr %0, i64 8
  %13 = load i64, ptr %12, align 8
  %14 = and i64 %13, 255
  %15 = select i1 %.not7, i64 %14, i64 %13
  %16 = getelementptr inbounds nuw i8, ptr %1, i64 32
  %17 = load i64, ptr %16, align 8, !tbaa !20
  %18 = sub i64 %17, %15
  store i64 %18, ptr %16, align 8, !tbaa !20
  ret void

19:                                               ; preds = %2
  %20 = tail call noundef nonnull ptr @_ZN4absl12lts_2024072212log_internal17MakeCheckOpStringImlEEPNSt7__cxx1112basic_stringIcSt11char_traitsIcESaIcEEET_T0_PKc(i64 noundef 0, i64 noundef 0, ptr noundef nonnull @.str.3)
  call void @llvm.lifetime.start.p0(i64 16, ptr nonnull %3) #22
  %21 = load ptr, ptr %20, align 8, !tbaa !46
  %22 = getelementptr inbounds nuw i8, ptr %20, i64 8
  %23 = load i64, ptr %22, align 8, !tbaa !50
  call void @_ZN4absl12lts_2024072212log_internal15LogMessageFatalC1EPKciSt17basic_string_viewIcSt11char_traitsIcEE(ptr noundef nonnull align 8 dereferenceable(16) %3, ptr noundef nonnull @.str, i32 noundef 496, i64 %23, ptr %21) #24
  call void @_ZN4absl12lts_2024072212log_internal15LogMessageFatalD1Ev(ptr noundef nonnull align 8 dereferenceable(16) %3) #23
  unreachable
}